; Function Attrs: mustprogress uwtable
define void @_ZN6casadi6LinsolC2ERKNSt7__cxx1112basic_stringIcSt11char_traitsIcESaIcEEES8_RKNS_8SparsityERKSt3mapIS6_NS_11GenericTypeESt4lessIS6_ESaISt4pairIS7_SD_EEE(ptr noundef nonnull align 8 dereferenceable(8) %0, ptr noundef nonnull align 8 dereferenceable(32) %1, ptr noundef nonnull align 8 dereferenceable(32) %2, ptr noundef nonnull align 8 dereferenceable(8) %3, ptr noundef nonnull align 8 dereferenceable(48) %4) unnamed_addr #3 align 2 personality ptr @__gxx_personality_v0 {
  tail call void @_ZN6casadi12SharedObjectC2Ev(ptr noundef nonnull align 8 dereferenceable(8) %0)
  %6 = invoke noundef nonnull align 8 dereferenceable(48) ptr @_ZN6casadi15PluginInterfaceINS_14LinsolInternalEE9getPluginERKNSt7__cxx1112basic_stringIcSt11char_traitsIcESaIcEEE(ptr noundef nonnull align 8 dereferenceable(32) %2)
          to label %7 unwind label %14

7:                                                ; preds = %5
  %8 = load ptr, ptr %6, align 8
  %9 = invoke noundef ptr %8(ptr noundef nonnull align 8 dereferenceable(32) %1, ptr noundef nonnull align 8 dereferenceable(8) %3)
          to label %10 unwind label %14

10:                                               ; preds = %7
  invoke void @_ZN6casadi12SharedObject3ownEPNS_20SharedObjectInternalE(ptr noundef nonnull align 8 dereferenceable(8) %0, ptr noundef %9)
          to label %11 unwind label %14

11:                                               ; preds = %10
  %12 = invoke noundef ptr @_ZNK6casadi12SharedObjectptEv(ptr noundef nonnull align 8 dereferenceable(8) %0)
          to label %_ZN6casadi6LinsolptEv.exit unwind label %14

_ZN6casadi6LinsolptEv.exit:                       ; preds = %11
  invoke void @_ZN6casadi13ProtoFunction9constructERKSt3mapINSt7__cxx1112basic_stringIcSt11char_traitsIcESaIcEEENS_11GenericTypeESt4lessIS7_ESaISt4pairIKS7_S8_EEE(ptr noundef nonnull align 8 dereferenceable(168) %12, ptr noundef nonnull align 8 dereferenceable(48) %4)
          to label %13 unwind label %14

13:                                               ; preds = %_ZN6casadi6LinsolptEv.exit
  ret void

14:                                               ; preds = %11, %_ZN6casadi6LinsolptEv.exit, %10, %7, %5
  %15 = landingpad { ptr, i32 }
          cleanup
  tail call void @_ZN6casadi12SharedObjectD2Ev(ptr noundef nonnull align 8 dereferenceable(8) %0) #20
  resume { ptr, i32 } %15
}